target datalayout = "e-m:e-p270:32:32-p271:32:32-p272:64:64-i64:64-i128:128-f80:128-n8:16:32:64-S128"
target triple = "x86_64-pc-linux-gnu"

@hf_fmp_hostID = internal global i32 0, align 4
@hf_fmp_btime = internal global i32 0, align 4
@hf_fmp_time_sec = internal global i32 0, align 4
@hf_fmp_time_nsec = internal global i32 0, align 4
@hf_fmp_notifyPort = internal global i32 0, align 4

; Function Attrs: null_pointer_is_valid sspstrong uwtable
define internal i32 @dissect_FMP_SessionCreate_request(ptr noundef %0, ptr noundef %1, ptr noundef %2, ptr noundef %3) #0 {
  %5 = alloca ptr, align 8
  %6 = alloca ptr, align 8
  %7 = alloca ptr, align 8
  %8 = alloca ptr, align 8
  %9 = alloca i32, align 4
  store ptr %0, ptr %5, align 8
  store ptr %1, ptr %6, align 8
  store ptr %2, ptr %7, align 8
  store ptr %3, ptr %8, align 8
  call void @llvm.lifetime.start.p0(i64 4, ptr %9) #4
  store i32 0, ptr %9, align 4
  %10 = load ptr, ptr %5, align 8
  %11 = load ptr, ptr %7, align 8
  %12 = load i32, ptr @hf_fmp_hostID, align 4
  %13 = load i32, ptr %9, align 4
  %14 = call i32 @dissect_rpc_string(ptr noundef %10, ptr noundef %11, i32 noundef %12, i32 noundef %13, ptr noundef null)
  store i32 %14, ptr %9, align 4
  %15 = load ptr, ptr %5, align 8
  %16 = load i32, ptr %9, align 4
  %17 = load ptr, ptr %6, align 8
  %18 = load ptr, ptr %7, align 8
  %19 = load i32, ptr @hf_fmp_btime, align 4
  %20 = load i32, ptr @hf_fmp_time_sec, align 4
  %21 = load i32, ptr @hf_fmp_time_nsec, align 4
  %22 = call i32 @dissect_fmp_timeval(ptr noundef %15, i32 noundef %16, ptr noundef %17, ptr noundef %18, i32 noundef %19, i32 noundef %20, i32 noundef %21)
  store i32 %22, ptr %9, align 4
  %23 = load ptr, ptr %5, align 8
  %24 = load ptr, ptr %7, align 8
  %25 = load i32, ptr @hf_fmp_notifyPort, align 4
  %26 = load i32, ptr %9, align 4
  %27 = call i32 @dissect_rpc_uint32(ptr noundef %23, ptr noundef %24, i32 noundef %25, i32 noundef %26)
  store i32 %27, ptr %9, align 4
  %28 = load i32, ptr %9, align 4
  call void @llvm.lifetime.end.p0(i64 4, ptr %9) #4
  ret i32 %28
}