; Function Attrs: null_pointer_is_valid sspstrong uwtable
define internal i32 @dissect_FMP_SessionCreate_request(ptr noundef %0, ptr readnone captures(none) %1, ptr noundef %2, ptr readnone captures(none) %3) #0 {
  %5 = load i32, ptr @hf_fmp_hostID, align 4
  %6 = tail call i32 @dissect_rpc_string(ptr noundef %0, ptr noundef %2, i32 noundef %5, i32 noundef 0, ptr noundef null)
  %7 = load i32, ptr @hf_fmp_btime, align 4
  %8 = load i32, ptr @hf_fmp_time_sec, align 4
  %9 = load i32, ptr @hf_fmp_time_nsec, align 4
  %10 = tail call fastcc i32 @dissect_fmp_timeval(ptr noundef %0, i32 noundef %6, ptr noundef %2, i32 noundef %7, i32 noundef %8, i32 noundef %9)
  %11 = load i32, ptr @hf_fmp_notifyPort, align 4
  %12 = tail call i32 @dissect_rpc_uint32(ptr noundef %0, ptr noundef %2, i32 noundef %11, i32 noundef %10)
  ret i32 %12
}